target datalayout = "e-m:e-p270:32:32-p271:32:32-p272:64:64-i64:64-i128:128-f80:128-n8:16:32:64-S128"
target triple = "x86_64-pc-linux-gnu"

%struct._GArray = type { ptr, i32 }
%struct.file_type_subtype_info = type { ptr, ptr, ptr, ptr, i8, i64, ptr, ptr, ptr, ptr }
%struct._GSList = type { ptr, ptr }

@.str = private unnamed_addr constant [2 x i8] c";\00", align 1
@file_type_subtype_table_arr = internal global ptr null, align 8
@file_type_subtype_table = internal global ptr null, align 8
@.str.100 = private unnamed_addr constant [6 x i8] c"%s.%s\00", align 1

; Function Attrs: null_pointer_is_valid sspstrong uwtable
define internal ptr @add_extensions(ptr noundef %0, ptr noundef %1, ptr noundef %2) #0 {
  %4 = alloca ptr, align 8
  %5 = alloca ptr, align 8
  %6 = alloca ptr, align 8
  %7 = alloca ptr, align 8
  store ptr %0, ptr %4, align 8
  store ptr %1, ptr %5, align 8
  store ptr %2, ptr %6, align 8
  %8 = load ptr, ptr %4, align 8
  %9 = load ptr, ptr %5, align 8
  %10 = call noalias ptr @g_strdup(ptr noundef %9)
  %11 = call ptr @g_slist_prepend(ptr noundef %8, ptr noundef %10)
  store ptr %11, ptr %4, align 8
  call void @llvm.lifetime.start.p0(i64 8, ptr %7) #12
  %12 = load ptr, ptr %6, align 8
  store ptr %12, ptr %7, align 8
  br label %13

13:                                               ; preds = %33, %3
  %14 = load ptr, ptr %7, align 8
  %15 = icmp ne ptr %14, null
  br i1 %15, label %17, label %16

16:                                               ; preds = %13
  call void @llvm.lifetime.end.p0(i64 8, ptr %7) #12
  br label %35

17:                                               ; preds = %13
  %18 = load ptr, ptr %4, align 8
  %19 = load ptr, ptr %5, align 8
  %20 = load ptr, ptr %7, align 8
  %21 = getelementptr inbounds nuw %struct._GSList, ptr %20, i32 0, i32 0
  %22 = load ptr, ptr %21, align 8
  %23 = call noalias ptr (ptr, ptr, ...) @wmem_strdup_printf(ptr noundef null, ptr noundef @.str.100, ptr noundef %19, ptr noundef %22)
  %24 = call ptr @g_slist_prepend(ptr noundef %18, ptr noundef %23)
  store ptr %24, ptr %4, align 8
  br label %25

25:                                               ; preds = %17
  %26 = load ptr, ptr %7, align 8
  %27 = icmp ne ptr %26, null
  br i1 %27, label %28, label %32

28:                                               ; preds = %25
  %29 = load ptr, ptr %7, align 8
  %30 = getelementptr inbounds nuw %struct._GSList, ptr %29, i32 0, i32 1
  %31 = load ptr, ptr %30, align 8
  br label %33

32:                                               ; preds = %25
  br label %33

33:                                               ; preds = %32, %28
  %34 = phi ptr [ %31, %28 ], [ null, %32 ]
  store ptr %34, ptr %7, align 8
  br label %13, !llvm.loop !36

35:                                               ; preds = %16
  %36 = load ptr, ptr %4, align 8
  ret ptr %36
}

; Function Attrs: null_pointer_is_valid sspstrong uwtable
define internal ptr @add_extensions_for_file_type_subtype(i32 noundef %0, ptr noundef %1, ptr noundef %2) #0 {
  %4 = alloca ptr, align 8
  %5 = alloca i32, align 4
  %6 = alloca ptr, align 8
  %7 = alloca ptr, align 8
  %8 = alloca ptr, align 8
  %9 = alloca ptr, align 8
  %10 = alloca ptr, align 8
  %11 = alloca i32, align 4
  store i32 %0, ptr %5, align 4
  store ptr %1, ptr %6, align 8
  store ptr %2, ptr %7, align 8
  call void @llvm.lifetime.start.p0(i64 8, ptr %8) #12
  call void @llvm.lifetime.start.p0(i64 8, ptr %9) #12
  call void @llvm.lifetime.start.p0(i64 8, ptr %10) #12
  %12 = load i32, ptr %5, align 4
  %13 = icmp slt i32 %12, 0
  br i1 %13, label %20, label %14

14:                                               ; preds = %3
  %15 = load i32, ptr %5, align 4
  %16 = load ptr, ptr @file_type_subtype_table_arr, align 8
  %17 = getelementptr inbounds nuw %struct._GArray, ptr %16, i32 0, i32 1
  %18 = load i32, ptr %17, align 8
  %19 = icmp sge i32 %15, %18
  br i1 %19, label %20, label %22

20:                                               ; preds = %14, %3
  %21 = load ptr, ptr %6, align 8
  store ptr %21, ptr %4, align 8
  store i32 1, ptr %11, align 4
  br label %75

22:                                               ; preds = %14
  %23 = load ptr, ptr @file_type_subtype_table, align 8
  %24 = load i32, ptr %5, align 4
  %25 = sext i32 %24 to i64
  %26 = getelementptr %struct.file_type_subtype_info, ptr %23, i64 %25
  %27 = getelementptr inbounds nuw %struct.file_type_subtype_info, ptr %26, i32 0, i32 2
  %28 = load ptr, ptr %27, align 8
  %29 = icmp ne ptr %28, null
  br i1 %29, label %30, label %40

30:                                               ; preds = %22
  %31 = load ptr, ptr %6, align 8
  %32 = load ptr, ptr @file_type_subtype_table, align 8
  %33 = load i32, ptr %5, align 4
  %34 = sext i32 %33 to i64
  %35 = getelementptr %struct.file_type_subtype_info, ptr %32, i64 %34
  %36 = getelementptr inbounds nuw %struct.file_type_subtype_info, ptr %35, i32 0, i32 2
  %37 = load ptr, ptr %36, align 8
  %38 = load ptr, ptr %7, align 8
  %39 = call ptr @add_extensions(ptr noundef %31, ptr noundef %37, ptr noundef %38)
  store ptr %39, ptr %6, align 8
  br label %40

40:                                               ; preds = %30, %22
  %41 = load ptr, ptr @file_type_subtype_table, align 8
  %42 = load i32, ptr %5, align 4
  %43 = sext i32 %42 to i64
  %44 = getelementptr %struct.file_type_subtype_info, ptr %41, i64 %43
  %45 = getelementptr inbounds nuw %struct.file_type_subtype_info, ptr %44, i32 0, i32 3
  %46 = load ptr, ptr %45, align 8
  %47 = icmp ne ptr %46, null
  br i1 %47, label %48, label %73

48:                                               ; preds = %40
  %49 = load ptr, ptr @file_type_subtype_table, align 8
  %50 = load i32, ptr %5, align 4
  %51 = sext i32 %50 to i64
  %52 = getelementptr %struct.file_type_subtype_info, ptr %49, i64 %51
  %53 = getelementptr inbounds nuw %struct.file_type_subtype_info, ptr %52, i32 0, i32 3
  %54 = load ptr, ptr %53, align 8
  %55 = call ptr @g_strsplit(ptr noundef %54, ptr noundef @.str, i32 noundef 0)
  store ptr %55, ptr %8, align 8
  %56 = load ptr, ptr %8, align 8
  store ptr %56, ptr %9, align 8
  br label %57

57:                                               ; preds = %68, %48
  %58 = load ptr, ptr %9, align 8
  %59 = load ptr, ptr %58, align 8
  %60 = icmp ne ptr %59, null
  br i1 %60, label %61, label %71

61:                                               ; preds = %57
  %62 = load ptr, ptr %9, align 8
  %63 = load ptr, ptr %62, align 8
  store ptr %63, ptr %10, align 8
  %64 = load ptr, ptr %6, align 8
  %65 = load ptr, ptr %10, align 8
  %66 = load ptr, ptr %7, align 8
  %67 = call ptr @add_extensions(ptr noundef %64, ptr noundef %65, ptr noundef %66)
  store ptr %67, ptr %6, align 8
  br label %68

68:                                               ; preds = %61
  %69 = load ptr, ptr %9, align 8
  %70 = getelementptr ptr, ptr %69, i32 1
  store ptr %70, ptr %9, align 8
  br label %57, !llvm.loop !30

71:                                               ; preds = %57
  %72 = load ptr, ptr %8, align 8
  call void @g_strfreev(ptr noundef %72)
  br label %73

73:                                               ; preds = %71, %40
  %74 = load ptr, ptr %6, align 8
  store ptr %74, ptr %4, align 8
  store i32 1, ptr %11, align 4
  br label %75

75:                                               ; preds = %73, %20
  call void @llvm.lifetime.end.p0(i64 8, ptr %10) #12
  call void @llvm.lifetime.end.p0(i64 8, ptr %9) #12
  call void @llvm.lifetime.end.p0(i64 8, ptr %8) #12
  %76 = load ptr, ptr %4, align 8
  ret ptr %76
}