; Function Attrs: null_pointer_is_valid sspstrong uwtable
define internal fastcc ptr @add_extensions_for_file_type_subtype(i32 noundef %0, ptr noundef %1, ptr noundef readonly captures(address_is_null) %2) unnamed_addr #0 {
  %4 = icmp slt i32 %0, 0
  br i1 %4, label %43, label %5

5:                                                ; preds = %3
  %6 = load ptr, ptr @file_type_subtype_table_arr, align 8
  %7 = getelementptr inbounds nuw i8, ptr %6, i64 8
  %8 = load i32, ptr %7, align 8
  %.not = icmp slt i32 %0, %8
  br i1 %.not, label %9, label %43

9:                                                ; preds = %5
  %10 = load ptr, ptr @file_type_subtype_table, align 8
  %11 = zext nneg i32 %0 to i64
  %12 = getelementptr %struct.file_type_subtype_info, ptr %10, i64 %11, i32 2
  %13 = load ptr, ptr %12, align 8
  %.not24 = icmp eq ptr %13, null
  br i1 %.not24, label %add_extensions.exit, label %14

14:                                               ; preds = %9
  %15 = tail call noalias ptr @g_strdup(ptr noundef nonnull %13)
  %16 = tail call ptr @g_slist_prepend(ptr noundef %1, ptr noundef %15)
  %.not11.i = icmp eq ptr %2, null
  br i1 %.not11.i, label %add_extensions.exit, label %.lr.ph.i

.lr.ph.i:                                         ; preds = %14, %.lr.ph.i
  %.013.i = phi ptr [ %21, %.lr.ph.i ], [ %2, %14 ]
  %.01012.i = phi ptr [ %19, %.lr.ph.i ], [ %16, %14 ]
  %17 = load ptr, ptr %.013.i, align 8
  %18 = tail call noalias ptr (ptr, ptr, ...) @wmem_strdup_printf(ptr noundef null, ptr noundef nonnull @.str.100, ptr noundef nonnull %13, ptr noundef %17)
  %19 = tail call ptr @g_slist_prepend(ptr noundef %.01012.i, ptr noundef %18)
  %20 = getelementptr inbounds nuw i8, ptr %.013.i, i64 8
  %21 = load ptr, ptr %20, align 8
  %.not.i = icmp eq ptr %21, null
  br i1 %.not.i, label %add_extensions.exit, label %.lr.ph.i, !llvm.loop !8

add_extensions.exit:                              ; preds = %.lr.ph.i, %14, %9
  %.019 = phi ptr [ %1, %9 ], [ %16, %14 ], [ %19, %.lr.ph.i ]
  %22 = load ptr, ptr @file_type_subtype_table, align 8
  %23 = getelementptr %struct.file_type_subtype_info, ptr %22, i64 %11, i32 3
  %24 = load ptr, ptr %23, align 8
  %.not25 = icmp eq ptr %24, null
  br i1 %.not25, label %43, label %25

25:                                               ; preds = %add_extensions.exit
  %26 = tail call ptr @g_strsplit(ptr noundef nonnull %24, ptr noundef nonnull @.str, i32 noundef 0)
  %27 = load ptr, ptr %26, align 8
  %.not2635 = icmp eq ptr %27, null
  br i1 %.not2635, label %._crit_edge, label %.lr.ph

.lr.ph:                                           ; preds = %25
  %.not11.i27 = icmp eq ptr %2, null
  br i1 %.not11.i27, label %add_extensions.exit33.us, label %.lr.ph.i28.preheader

add_extensions.exit33.us:                         ; preds = %.lr.ph, %add_extensions.exit33.us
  %28 = phi ptr [ %32, %add_extensions.exit33.us ], [ %27, %.lr.ph ]
  %.01837.us = phi ptr [ %31, %add_extensions.exit33.us ], [ %26, %.lr.ph ]
  %.236.us = phi ptr [ %30, %add_extensions.exit33.us ], [ %.019, %.lr.ph ]
  %29 = tail call noalias ptr @g_strdup(ptr noundef nonnull %28)
  %30 = tail call ptr @g_slist_prepend(ptr noundef %.236.us, ptr noundef %29)
  %31 = getelementptr i8, ptr %.01837.us, i64 8
  %32 = load ptr, ptr %31, align 8
  %.not26.us = icmp eq ptr %32, null
  br i1 %.not26.us, label %._crit_edge, label %add_extensions.exit33.us, !llvm.loop !33

.lr.ph.i28.preheader:                             ; preds = %.lr.ph, %add_extensions.exit33.loopexit
  %33 = phi ptr [ %42, %add_extensions.exit33.loopexit ], [ %27, %.lr.ph ]
  %.01837 = phi ptr [ %41, %add_extensions.exit33.loopexit ], [ %26, %.lr.ph ]
  %.236 = phi ptr [ %38, %add_extensions.exit33.loopexit ], [ %.019, %.lr.ph ]
  %34 = tail call noalias ptr @g_strdup(ptr noundef nonnull %33)
  %35 = tail call ptr @g_slist_prepend(ptr noundef %.236, ptr noundef %34)
  br label %.lr.ph.i28

.lr.ph.i28:                                       ; preds = %.lr.ph.i28.preheader, %.lr.ph.i28
  %.013.i29 = phi ptr [ %40, %.lr.ph.i28 ], [ %2, %.lr.ph.i28.preheader ]
  %.01012.i30 = phi ptr [ %38, %.lr.ph.i28 ], [ %35, %.lr.ph.i28.preheader ]
  %36 = load ptr, ptr %.013.i29, align 8
  %37 = tail call noalias ptr (ptr, ptr, ...) @wmem_strdup_printf(ptr noundef null, ptr noundef nonnull @.str.100, ptr noundef nonnull %33, ptr noundef %36)
  %38 = tail call ptr @g_slist_prepend(ptr noundef %.01012.i30, ptr noundef %37)
  %39 = getelementptr inbounds nuw i8, ptr %.013.i29, i64 8
  %40 = load ptr, ptr %39, align 8
  %.not.i31 = icmp eq ptr %40, null
  br i1 %.not.i31, label %add_extensions.exit33.loopexit, label %.lr.ph.i28, !llvm.loop !8

add_extensions.exit33.loopexit:                   ; preds = %.lr.ph.i28
  %41 = getelementptr i8, ptr %.01837, i64 8
  %42 = load ptr, ptr %41, align 8
  %.not26 = icmp eq ptr %42, null
  br i1 %.not26, label %._crit_edge, label %.lr.ph.i28.preheader, !llvm.loop !33

._crit_edge:                                      ; preds = %add_extensions.exit33.loopexit, %add_extensions.exit33.us, %25
  %.2.lcssa = phi ptr [ %.019, %25 ], [ %30, %add_extensions.exit33.us ], [ %38, %add_extensions.exit33.loopexit ]
  tail call void @g_strfreev(ptr noundef %26)
  br label %43

43:                                               ; preds = %add_extensions.exit, %._crit_edge, %3, %5
  %.0 = phi ptr [ %1, %5 ], [ %1, %3 ], [ %.2.lcssa, %._crit_edge ], [ %.019, %add_extensions.exit ]
  ret ptr %.0
}